; Function Attrs: mustprogress uwtable
define noundef ptr @_ZNK6icu_7513UnicodeString5cloneEv(ptr noundef nonnull align 8 dereferenceable(64) %this) unnamed_addr #5 align 2 personality ptr @__gxx_personality_v0 {
entry:
  %call = tail call noundef ptr @_ZN6icu_757UMemorynwEm(i64 noundef 64) #22
  %new.isnull = icmp eq ptr %call, null
  br i1 %new.isnull, label %_ZN6icu_7512LocalPointerINS_13UnicodeStringEED2Ev.exit, label %new.notnull

new.notnull:                                      ; preds = %entry
  invoke void @_ZN6icu_7513UnicodeStringC1ERKS0_(ptr noundef nonnull align 8 dereferenceable(64) %call, ptr noundef nonnull align 8 dereferenceable(64) %this)
          to label %land.lhs.true unwind label %lpad

land.lhs.true:                                    ; preds = %new.notnull
  %fUnion.i = getelementptr inbounds i8, ptr %call, i64 8
  %0 = load i16, ptr %fUnion.i, align 8
  %conv2.i11 = and i16 %0, 1
  %tobool9.not = icmp eq i16 %conv2.i11, 0
  br i1 %tobool9.not, label %_ZN6icu_7512LocalPointerINS_13UnicodeStringEED2Ev.exit, label %delete.notnull.i

delete.notnull.i:                                 ; preds = %land.lhs.true
  %vtable.i = load ptr, ptr %call, align 8
  %vfn.i = getelementptr inbounds i8, ptr %vtable.i, i64 8
  %1 = load ptr, ptr %vfn.i, align 8
  tail call void %1(ptr noundef nonnull align 8 dereferenceable(64) %call) #22
  br label %_ZN6icu_7512LocalPointerINS_13UnicodeStringEED2Ev.exit

_ZN6icu_7512LocalPointerINS_13UnicodeStringEED2Ev.exit: ; preds = %land.lhs.true, %entry, %delete.notnull.i
  %cond10 = phi ptr [ null, %delete.notnull.i ], [ null, %entry ], [ %call, %land.lhs.true ]
  ret ptr %cond10

lpad:                                             ; preds = %new.notnull
  %2 = landingpad { ptr, i32 }
          cleanup
  tail call void @_ZN6icu_757UMemorydlEPv(ptr noundef nonnull %call) #22
  resume { ptr, i32 } %2
}